target datalayout = "e-m:e-p270:32:32-p271:32:32-p272:64:64-i64:64-i128:128-f80:128-n8:16:32:64-S128"
target triple = "x86_64-unknown-linux-gnu"

%struct.emap_s = type { %struct.rtree_s }
%struct.rtree_s = type { ptr, %struct.malloc_mutex_s, [262144 x %struct.rtree_node_elm_s] }
%struct.malloc_mutex_s = type { %union.anon }
%union.anon = type { %struct.anon }
%struct.anon = type { %struct.mutex_prof_data_t, %union.pthread_mutex_t, %struct.atomic_b_t }
%struct.mutex_prof_data_t = type { %struct.nstime_t, %struct.nstime_t, i64, i64, i32, %struct.atomic_u32_t, i64, ptr, i64 }
%struct.nstime_t = type { i64 }
%struct.atomic_u32_t = type { i32 }
%union.pthread_mutex_t = type { %struct.__pthread_mutex_s }
%struct.__pthread_mutex_s = type { i32, i32, i32, i32, i32, i16, i16, %struct.__pthread_internal_list }
%struct.__pthread_internal_list = type { ptr, ptr }
%struct.atomic_b_t = type { i8 }
%struct.rtree_node_elm_s = type { %struct.atomic_p_t }
%struct.atomic_p_t = type { ptr }
%struct.rtree_ctx_s = type { [16 x %struct.rtree_ctx_cache_elm_s], [8 x %struct.rtree_ctx_cache_elm_s] }
%struct.rtree_ctx_cache_elm_s = type { i64, ptr }
%struct.tsd_s = type { i8, i8, i64, i64, i64, i64, i64, i64, i64, i64, i64, i64, i64, i64, ptr, i64, i64, i64, ptr, ptr, %struct.ticker_geom_s, i8, %struct.tsd_binshards_s, %struct.tsd_link_t, i8, %struct.peak_s, %struct.activity_callback_thunk_s, %struct.tcache_slow_s, %struct.rtree_ctx_s, %struct.atomic_u8_t, i64, i64, i64, i64, %struct.tcache_s, %struct.witness_tsd_s }
%struct.ticker_geom_s = type { i32, i32 }
%struct.tsd_binshards_s = type { [39 x i8] }
%struct.tsd_link_t = type { ptr, ptr }
%struct.peak_s = type { i64, i64 }
%struct.activity_callback_thunk_s = type { ptr, ptr }
%struct.tcache_slow_s = type { %struct.anon.7, %struct.cache_bin_array_descriptor_s, ptr, i32, [39 x i8], [39 x i8], [39 x i8], ptr, ptr }
%struct.anon.7 = type { ptr, ptr }
%struct.cache_bin_array_descriptor_s = type { %struct.anon.8, ptr }
%struct.anon.8 = type { ptr, ptr }
%struct.atomic_u8_t = type { i8 }
%struct.tcache_s = type { ptr, [76 x %struct.cache_bin_s] }
%struct.cache_bin_s = type { ptr, %struct.cache_bin_stats_s, i16, i16, i16 }
%struct.cache_bin_stats_s = type { i64 }
%struct.witness_tsd_s = type { %struct.witness_list_t, i8 }
%struct.witness_list_t = type { ptr }
%struct.edata_s = type { i64, ptr, %union.anon.1, ptr, i64, %union.anon.2, %union.anon.5 }
%union.anon.1 = type { i64 }
%union.anon.2 = type { %union.anon.4 }
%union.anon.4 = type { %struct.edata_heap_link_t }
%struct.edata_heap_link_t = type { %struct.phn_link_s }
%struct.phn_link_s = type { ptr, ptr, ptr }
%union.anon.5 = type { %struct.slab_data_s }
%struct.slab_data_s = type { [8 x i64] }
%struct.rtree_contents_s = type { ptr, %struct.rtree_metadata_s }
%struct.rtree_metadata_s = type { i32, i32, i8, i8 }

; Function Attrs: nounwind uwtable
define internal ptr @edata_base_get(ptr noundef %edata) #0 {
entry:
  %edata.addr = alloca ptr, align 8
  store ptr %edata, ptr %edata.addr, align 8
  br label %do.body

do.body:                                          ; preds = %entry
  br label %do.end

do.end:                                           ; preds = %do.body
  %0 = load ptr, ptr %edata.addr, align 8
  %e_addr = getelementptr inbounds %struct.edata_s, ptr %0, i32 0, i32 1
  %1 = load ptr, ptr %e_addr, align 8
  %2 = ptrtoint ptr %1 to i64
  %and = and i64 %2, -4096
  %3 = inttoptr i64 %and to ptr
  ret ptr %3
}

; Function Attrs: nounwind uwtable
define hidden void @emap_do_assert_mapped(ptr noundef %tsdn, ptr noundef %emap, ptr noundef %edata) #0 {
entry:
  %tsd.addr.i9 = alloca ptr, align 8
  %tsd.addr.i.i = alloca ptr, align 8
  %tsd.addr.i8 = alloca ptr, align 8
  %state.i = alloca i8, align 1
  %tsd.addr.i = alloca ptr, align 8
  %tsdn.addr.i7 = alloca ptr, align 8
  %tsdn.addr.i6 = alloca ptr, align 8
  %retval.i = alloca ptr, align 8
  %tsdn.addr.i = alloca ptr, align 8
  %fallback.addr.i = alloca ptr, align 8
  %tsdn.addr = alloca ptr, align 8
  %emap.addr = alloca ptr, align 8
  %edata.addr = alloca ptr, align 8
  %rtree_ctx_fallback = alloca %struct.rtree_ctx_s, align 8
  %rtree_ctx = alloca ptr, align 8
  %contents = alloca %struct.rtree_contents_s, align 8
  store ptr %tsdn, ptr %tsdn.addr, align 8
  store ptr %emap, ptr %emap.addr, align 8
  store ptr %edata, ptr %edata.addr, align 8
  %0 = load ptr, ptr %tsdn.addr, align 8
  store ptr %0, ptr %tsdn.addr.i, align 8
  store ptr %rtree_ctx_fallback, ptr %fallback.addr.i, align 8
  %1 = load ptr, ptr %tsdn.addr.i, align 8
  store ptr %1, ptr %tsdn.addr.i6, align 8
  %2 = load ptr, ptr %tsdn.addr.i6, align 8
  %cmp.i = icmp eq ptr %2, null
  br i1 %cmp.i, label %if.then.i, label %if.end.i

if.then.i:                                        ; preds = %entry
  %3 = load ptr, ptr %fallback.addr.i, align 8
  call void @rtree_ctx_data_init(ptr noundef %3) #5
  %4 = load ptr, ptr %fallback.addr.i, align 8
  store ptr %4, ptr %retval.i, align 8
  br label %tsdn_rtree_ctx.exit

if.end.i:                                         ; preds = %entry
  %5 = load ptr, ptr %tsdn.addr.i, align 8
  store ptr %5, ptr %tsdn.addr.i7, align 8
  %6 = load ptr, ptr %tsdn.addr.i7, align 8
  store ptr %6, ptr %tsd.addr.i, align 8
  %7 = load ptr, ptr %tsd.addr.i, align 8
  store ptr %7, ptr %tsd.addr.i8, align 8
  %8 = load ptr, ptr %tsd.addr.i8, align 8
  store ptr %8, ptr %tsd.addr.i.i, align 8
  %9 = load ptr, ptr %tsd.addr.i.i, align 8
  %state.i.i = getelementptr inbounds %struct.tsd_s, ptr %9, i32 0, i32 29
  %10 = load i8, ptr %state.i.i, align 8
  store i8 %10, ptr %state.i, align 1
  %11 = load ptr, ptr %tsd.addr.i8, align 8
  store ptr %11, ptr %tsd.addr.i9, align 8
  %12 = load ptr, ptr %tsd.addr.i9, align 8
  %cant_access_tsd_items_directly_use_a_getter_or_setter_rtree_ctx.i = getelementptr inbounds %struct.tsd_s, ptr %12, i32 0, i32 28
  store ptr %cant_access_tsd_items_directly_use_a_getter_or_setter_rtree_ctx.i, ptr %retval.i, align 8
  br label %tsdn_rtree_ctx.exit

tsdn_rtree_ctx.exit:                              ; preds = %if.end.i, %if.then.i
  %13 = load ptr, ptr %retval.i, align 8
  store ptr %13, ptr %rtree_ctx, align 8
  %14 = load ptr, ptr %tsdn.addr, align 8
  %15 = load ptr, ptr %emap.addr, align 8
  %rtree = getelementptr inbounds %struct.emap_s, ptr %15, i32 0, i32 0
  %16 = load ptr, ptr %rtree_ctx, align 8
  %17 = load ptr, ptr %edata.addr, align 8
  %call1 = call ptr @edata_base_get(ptr noundef %17)
  %18 = ptrtoint ptr %call1 to i64
  call void @rtree_read(ptr dead_on_unwind writable sret(%struct.rtree_contents_s) align 8 %contents, ptr noundef %14, ptr noundef %rtree, ptr noundef %16, i64 noundef %18)
  br label %do.body

do.body:                                          ; preds = %tsdn_rtree_ctx.exit
  br label %do.end

do.end:                                           ; preds = %do.body
  br label %do.body2

do.body2:                                         ; preds = %do.end
  br label %do.end3

do.end3:                                          ; preds = %do.body2
  br label %do.body4

do.body4:                                         ; preds = %do.end3
  br label %do.end5

do.end5:                                          ; preds = %do.body4
  ret void
}