; Function Attrs: nounwind uwtable
define hidden void @emap_do_assert_mapped(ptr noundef %tsdn, ptr noundef %emap, ptr nocapture noundef readonly %edata) local_unnamed_addr #0 {
entry:
  %rtree_ctx_fallback = alloca %struct.rtree_ctx_s, align 8
  %contents = alloca %struct.rtree_contents_s, align 8
  %cmp.i = icmp eq ptr %tsdn, null
  %0 = getelementptr i8, ptr %edata, i64 8
  br i1 %cmp.i, label %if.then.i, label %if.end.i.split

if.then.i:                                        ; preds = %entry
  call void @rtree_ctx_data_init(ptr noundef nonnull %rtree_ctx_fallback) #4
  %edata.val7 = load ptr, ptr %0, align 8
  %1 = ptrtoint ptr %edata.val7 to i64
  %and.i = and i64 %1, -4096
  call fastcc void @rtree_read(ptr dead_on_unwind noalias nonnull writable align 8 %contents, ptr noundef null, ptr noundef %emap, ptr noundef nonnull %rtree_ctx_fallback, i64 noundef %and.i)
  br label %tsdn_rtree_ctx.exit

if.end.i.split:                                   ; preds = %entry
  %cant_access_tsd_items_directly_use_a_getter_or_setter_rtree_ctx.i = getelementptr inbounds i8, ptr %tsdn, i64 448
  %edata.val = load ptr, ptr %0, align 8
  %2 = ptrtoint ptr %edata.val to i64
  %and.i8 = and i64 %2, -4096
  call fastcc void @rtree_read(ptr dead_on_unwind noalias nonnull writable align 8 %contents, ptr noundef nonnull %tsdn, ptr noundef %emap, ptr noundef nonnull %cant_access_tsd_items_directly_use_a_getter_or_setter_rtree_ctx.i, i64 noundef %and.i8)
  br label %tsdn_rtree_ctx.exit

tsdn_rtree_ctx.exit:                              ; preds = %if.end.i.split, %if.then.i
  ret void
}